target datalayout = "e-m:e-p270:32:32-p271:32:32-p272:64:64-i64:64-i128:128-f80:128-n8:16:32:64-S128"
target triple = "x86_64-unknown-linux-gnu"

%class.func_interp = type { ptr, i32, %class.ptr_vector.69, ptr, i8, ptr, ptr }
%class.ptr_vector.69 = type { %class.vector.70 }
%class.vector.70 = type { ptr }

; Function Attrs: mustprogress nounwind uwtable
define linkonce_odr hidden noundef ptr @_ZNK11func_interp8get_elseEv(ptr noundef nonnull align 8 dereferenceable(56) %this) #5 comdat align 2 {
entry:
  %this.addr = alloca ptr, align 8
  store ptr %this, ptr %this.addr, align 8
  %this1 = load ptr, ptr %this.addr, align 8
  %m_else = getelementptr inbounds %class.func_interp, ptr %this1, i32 0, i32 3
  %0 = load ptr, ptr %m_else, align 8
  ret ptr %0
}

; Function Attrs: mustprogress nounwind uwtable
define linkonce_odr hidden noundef zeroext i1 @_ZNK11func_interp10is_partialEv(ptr noundef nonnull align 8 dereferenceable(56) %this) #5 comdat align 2 {
entry:
  %this.addr = alloca ptr, align 8
  store ptr %this, ptr %this.addr, align 8
  %this1 = load ptr, ptr %this.addr, align 8
  %m_else = getelementptr inbounds %class.func_interp, ptr %this1, i32 0, i32 3
  %0 = load ptr, ptr %m_else, align 8
  %cmp = icmp eq ptr %0, null
  ret i1 %cmp
}

; Function Attrs: mustprogress uwtable
define hidden void @_ZN11proto_model19cleanup_func_interpER10ref_vectorI4expr11ast_managerEP11func_interpR13obj_hashtableI9func_declE(ptr noundef nonnull align 8 dereferenceable(177) %this, ptr noundef nonnull align 8 dereferenceable(16) %trail, ptr noundef %fi, ptr noundef nonnull align 8 dereferenceable(20) %found_aux_fs) #4 align 2 {
entry:
  %this.addr = alloca ptr, align 8
  %trail.addr = alloca ptr, align 8
  %fi.addr = alloca ptr, align 8
  %found_aux_fs.addr = alloca ptr, align 8
  %fi_else = alloca ptr, align 8
  store ptr %this, ptr %this.addr, align 8
  store ptr %trail, ptr %trail.addr, align 8
  store ptr %fi, ptr %fi.addr, align 8
  store ptr %found_aux_fs, ptr %found_aux_fs.addr, align 8
  %this1 = load ptr, ptr %this.addr, align 8
  %0 = load ptr, ptr %fi.addr, align 8
  %call = call noundef zeroext i1 @_ZNK11func_interp10is_partialEv(ptr noundef nonnull align 8 dereferenceable(56) %0)
  br i1 %call, label %if.end, label %if.then

if.then:                                          ; preds = %entry
  %1 = load ptr, ptr %fi.addr, align 8
  %call2 = call noundef ptr @_ZNK11func_interp8get_elseEv(ptr noundef nonnull align 8 dereferenceable(56) %1)
  store ptr %call2, ptr %fi_else, align 8
  %2 = load ptr, ptr %fi.addr, align 8
  %3 = load ptr, ptr %trail.addr, align 8
  %4 = load ptr, ptr %fi_else, align 8
  %5 = load ptr, ptr %found_aux_fs.addr, align 8
  %call3 = call noundef ptr @_ZN11proto_model12cleanup_exprER10ref_vectorI4expr11ast_managerEPS1_R13obj_hashtableI9func_declE(ptr noundef nonnull align 8 dereferenceable(177) %this1, ptr noundef nonnull align 8 dereferenceable(16) %3, ptr noundef %4, ptr noundef nonnull align 8 dereferenceable(20) %5)
  call void @_ZN11func_interp8set_elseEP4expr(ptr noundef nonnull align 8 dereferenceable(56) %2, ptr noundef %call3)
  br label %if.end

if.end:                                           ; preds = %if.then, %entry
  ret void
}