; Function Attrs: mustprogress uwtable
define hidden void @_ZN11proto_model19cleanup_func_interpER10ref_vectorI4expr11ast_managerEP11func_interpR13obj_hashtableI9func_declE(ptr noundef nonnull align 8 dereferenceable(177) %this, ptr noundef nonnull align 8 dereferenceable(16) %trail, ptr noundef %fi, ptr noundef nonnull align 8 dereferenceable(20) %found_aux_fs) local_unnamed_addr #3 align 2 {
entry:
  %m_else.i = getelementptr inbounds i8, ptr %fi, i64 24
  %0 = load ptr, ptr %m_else.i, align 8
  %cmp.i = icmp eq ptr %0, null
  br i1 %cmp.i, label %if.end, label %if.then

if.then:                                          ; preds = %entry
  %call3 = tail call noundef ptr @_ZN11proto_model12cleanup_exprER10ref_vectorI4expr11ast_managerEPS1_R13obj_hashtableI9func_declE(ptr noundef nonnull align 8 dereferenceable(177) %this, ptr noundef nonnull align 8 dereferenceable(16) %trail, ptr noundef nonnull %0, ptr noundef nonnull align 8 dereferenceable(20) %found_aux_fs)
  tail call void @_ZN11func_interp8set_elseEP4expr(ptr noundef nonnull align 8 dereferenceable(56) %fi, ptr noundef %call3)
  br label %if.end

if.end:                                           ; preds = %if.then, %entry
  ret void
}